target datalayout = "e-m:e-p270:32:32-p271:32:32-p272:64:64-i64:64-i128:128-f80:128-n8:16:32:64-S128"
target triple = "x86_64-pc-linux-gnu"

; Function Attrs: nounwind uwtable
define internal void @rv34_inv_transform_dc_noround_c(ptr noundef %0) #1 {
  %2 = alloca ptr, align 8
  %3 = alloca i16, align 2
  %4 = alloca i32, align 4
  %5 = alloca i32, align 4
  store ptr %0, ptr %2, align 8, !tbaa !14
  call void @llvm.lifetime.start.p0(i64 2, ptr %3) #6
  %6 = load ptr, ptr %2, align 8, !tbaa !14
  %7 = getelementptr inbounds i16, ptr %6, i64 0
  %8 = load i16, ptr %7, align 2, !tbaa !18
  %9 = sext i16 %8 to i32
  %10 = mul nsw i32 507, %9
  %11 = ashr i32 %10, 11
  %12 = trunc i32 %11 to i16
  store i16 %12, ptr %3, align 2, !tbaa !18
  call void @llvm.lifetime.start.p0(i64 4, ptr %4) #6
  call void @llvm.lifetime.start.p0(i64 4, ptr %5) #6
  store i32 0, ptr %4, align 4, !tbaa !16
  br label %13

13:                                               ; preds = %30, %1
  %14 = load i32, ptr %4, align 4, !tbaa !16
  %15 = icmp slt i32 %14, 4
  br i1 %15, label %16, label %35

16:                                               ; preds = %13
  store i32 0, ptr %5, align 4, !tbaa !16
  br label %17

17:                                               ; preds = %26, %16
  %18 = load i32, ptr %5, align 4, !tbaa !16
  %19 = icmp slt i32 %18, 4
  br i1 %19, label %20, label %29

20:                                               ; preds = %17
  %21 = load i16, ptr %3, align 2, !tbaa !18
  %22 = load ptr, ptr %2, align 8, !tbaa !14
  %23 = load i32, ptr %5, align 4, !tbaa !16
  %24 = sext i32 %23 to i64
  %25 = getelementptr inbounds i16, ptr %22, i64 %24
  store i16 %21, ptr %25, align 2, !tbaa !18
  br label %26

26:                                               ; preds = %20
  %27 = load i32, ptr %5, align 4, !tbaa !16
  %28 = add nsw i32 %27, 1
  store i32 %28, ptr %5, align 4, !tbaa !16
  br label %17, !llvm.loop !22

29:                                               ; preds = %17
  br label %30

30:                                               ; preds = %29
  %31 = load i32, ptr %4, align 4, !tbaa !16
  %32 = add nsw i32 %31, 1
  store i32 %32, ptr %4, align 4, !tbaa !16
  %33 = load ptr, ptr %2, align 8, !tbaa !14
  %34 = getelementptr inbounds i16, ptr %33, i64 4
  store ptr %34, ptr %2, align 8, !tbaa !14
  br label %13, !llvm.loop !23

35:                                               ; preds = %13
  call void @llvm.lifetime.end.p0(i64 4, ptr %5) #6
  call void @llvm.lifetime.end.p0(i64 4, ptr %4) #6
  call void @llvm.lifetime.end.p0(i64 2, ptr %3) #6
  ret void
}