; Function Attrs: nofree norecurse nosync nounwind memory(argmem: readwrite) uwtable
define internal void @rv34_inv_transform_dc_noround_c(ptr noundef captures(none) %0) #1 {
  %2 = load i16, ptr %0, align 2, !tbaa !12
  %3 = sext i16 %2 to i32
  %4 = mul nsw i32 %3, 507
  %5 = lshr i32 %4, 11
  %6 = trunc i32 %5 to i16
  br label %.preheader

.preheader:                                       ; preds = %1, %9
  %.0812 = phi i32 [ 0, %1 ], [ %10, %9 ]
  %.0911 = phi ptr [ %0, %1 ], [ %11, %9 ]
  br label %7

7:                                                ; preds = %.preheader, %7
  %indvars.iv = phi i64 [ 0, %.preheader ], [ %indvars.iv.next, %7 ]
  %8 = getelementptr inbounds nuw i16, ptr %.0911, i64 %indvars.iv
  store i16 %6, ptr %8, align 2, !tbaa !12
  %indvars.iv.next = add nuw nsw i64 %indvars.iv, 1
  %exitcond.not = icmp eq i64 %indvars.iv.next, 4
  br i1 %exitcond.not, label %9, label %7, !llvm.loop !19

9:                                                ; preds = %7
  %10 = add nuw nsw i32 %.0812, 1
  %11 = getelementptr inbounds nuw i8, ptr %.0911, i64 8
  %exitcond14.not = icmp eq i32 %10, 4
  br i1 %exitcond14.not, label %12, label %.preheader, !llvm.loop !20

12:                                               ; preds = %9
  ret void
}